; Function Attrs: null_pointer_is_valid sspstrong uwtable
define hidden noalias noundef ptr @gzwfile_fdopen(i32 noundef %0) local_unnamed_addr #0 {
  %2 = tail call noalias dereferenceable_or_null(184) ptr @g_try_malloc(i64 noundef 184) #22
  %3 = icmp eq ptr %2, null
  br i1 %3, label %13, label %4

4:                                                ; preds = %1
  store i32 %0, ptr %2, align 8
  %5 = getelementptr inbounds nuw i8, ptr %2, i64 16
  store i32 0, ptr %5, align 8
  %6 = getelementptr inbounds nuw i8, ptr %2, i64 20
  store i32 4096, ptr %6, align 4
  %7 = getelementptr inbounds nuw i8, ptr %2, i64 48
  store i32 -1, ptr %7, align 8
  %8 = getelementptr inbounds nuw i8, ptr %2, i64 52
  store i32 0, ptr %8, align 4
  %9 = getelementptr inbounds nuw i8, ptr %2, i64 56
  store i32 0, ptr %9, align 8
  %10 = getelementptr inbounds nuw i8, ptr %2, i64 64
  store ptr null, ptr %10, align 8
  %11 = getelementptr inbounds nuw i8, ptr %2, i64 8
  store i64 0, ptr %11, align 8
  %12 = getelementptr inbounds nuw i8, ptr %2, i64 80
  store i32 0, ptr %12, align 8
  br label %13

13:                                               ; preds = %1, %4
  ret ptr %2
}